target datalayout = "e-m:e-p270:32:32-p271:32:32-p272:64:64-i64:64-i128:128-f80:128-n8:16:32:64-S128"
target triple = "x86_64-unknown-linux-gnu"

%struct.HistogramCommand = type { [704 x i32], i64, double }

; Function Attrs: nounwind uwtable
define hidden void @BrotliClusterHistogramsCommand(ptr noundef %m, ptr noundef %in, i64 noundef %in_size, i64 noundef %max_histograms, ptr noundef %out, ptr noundef %out_size, ptr noundef %histogram_symbols) #0 {
entry:
  %a.addr.i85 = alloca i64, align 8
  %b.addr.i86 = alloca i64, align 8
  %a.addr.i = alloca i64, align 8
  %b.addr.i = alloca i64, align 8
  %m.addr = alloca ptr, align 8
  %in.addr = alloca ptr, align 8
  %in_size.addr = alloca i64, align 8
  %max_histograms.addr = alloca i64, align 8
  %out.addr = alloca ptr, align 8
  %out_size.addr = alloca ptr, align 8
  %histogram_symbols.addr = alloca ptr, align 8
  %cluster_size = alloca ptr, align 8
  %clusters = alloca ptr, align 8
  %num_clusters = alloca i64, align 8
  %max_input_histograms = alloca i64, align 8
  %pairs_capacity = alloca i64, align 8
  %pairs = alloca ptr, align 8
  %tmp = alloca ptr, align 8
  %i = alloca i64, align 8
  %num_to_combine = alloca i64, align 8
  %num_new_clusters = alloca i64, align 8
  %j = alloca i64, align 8
  %max_num_pairs = alloca i64, align 8
  %_new_size = alloca i64, align 8
  %new_array = alloca ptr, align 8
  store ptr %m, ptr %m.addr, align 8
  store ptr %in, ptr %in.addr, align 8
  store i64 %in_size, ptr %in_size.addr, align 8
  store i64 %max_histograms, ptr %max_histograms.addr, align 8
  store ptr %out, ptr %out.addr, align 8
  store ptr %out_size, ptr %out_size.addr, align 8
  store ptr %histogram_symbols, ptr %histogram_symbols.addr, align 8
  %0 = load i64, ptr %in_size.addr, align 8
  %cmp = icmp ugt i64 %0, 0
  br i1 %cmp, label %cond.true, label %cond.false

cond.true:                                        ; preds = %entry
  %1 = load ptr, ptr %m.addr, align 8
  %2 = load i64, ptr %in_size.addr, align 8
  %mul = mul i64 %2, 4
  %call = call ptr @BrotliAllocate(ptr noundef %1, i64 noundef %mul)
  br label %cond.end

cond.false:                                       ; preds = %entry
  br label %cond.end

cond.end:                                         ; preds = %cond.false, %cond.true
  %cond = phi ptr [ %call, %cond.true ], [ null, %cond.false ]
  store ptr %cond, ptr %cluster_size, align 8
  %3 = load i64, ptr %in_size.addr, align 8
  %cmp1 = icmp ugt i64 %3, 0
  br i1 %cmp1, label %cond.true2, label %cond.false5

cond.true2:                                       ; preds = %cond.end
  %4 = load ptr, ptr %m.addr, align 8
  %5 = load i64, ptr %in_size.addr, align 8
  %mul3 = mul i64 %5, 4
  %call4 = call ptr @BrotliAllocate(ptr noundef %4, i64 noundef %mul3)
  br label %cond.end6

cond.false5:                                      ; preds = %cond.end
  br label %cond.end6

cond.end6:                                        ; preds = %cond.false5, %cond.true2
  %cond7 = phi ptr [ %call4, %cond.true2 ], [ null, %cond.false5 ]
  store ptr %cond7, ptr %clusters, align 8
  store i64 0, ptr %num_clusters, align 8
  store i64 64, ptr %max_input_histograms, align 8
  store i64 2048, ptr %pairs_capacity, align 8
  %6 = load i64, ptr %pairs_capacity, align 8
  %add = add i64 %6, 1
  %cmp8 = icmp ugt i64 %add, 0
  br i1 %cmp8, label %cond.true9, label %cond.false13

cond.true9:                                       ; preds = %cond.end6
  %7 = load ptr, ptr %m.addr, align 8
  %8 = load i64, ptr %pairs_capacity, align 8
  %add10 = add i64 %8, 1
  %mul11 = mul i64 %add10, 24
  %call12 = call ptr @BrotliAllocate(ptr noundef %7, i64 noundef %mul11)
  br label %cond.end14

cond.false13:                                     ; preds = %cond.end6
  br label %cond.end14

cond.end14:                                       ; preds = %cond.false13, %cond.true9
  %cond15 = phi ptr [ %call12, %cond.true9 ], [ null, %cond.false13 ]
  store ptr %cond15, ptr %pairs, align 8
  %9 = load ptr, ptr %m.addr, align 8
  %call16 = call ptr @BrotliAllocate(ptr noundef %9, i64 noundef 2832)
  store ptr %call16, ptr %tmp, align 8
  store i64 0, ptr %i, align 8
  br label %for.cond

for.cond:                                         ; preds = %for.inc, %cond.end14
  %10 = load i64, ptr %i, align 8
  %11 = load i64, ptr %in_size.addr, align 8
  %cmp17 = icmp ult i64 %10, %11
  br i1 %cmp17, label %for.body, label %for.end

for.body:                                         ; preds = %for.cond
  %12 = load ptr, ptr %cluster_size, align 8
  %13 = load i64, ptr %i, align 8
  %arrayidx = getelementptr inbounds i32, ptr %12, i64 %13
  store i32 1, ptr %arrayidx, align 4
  br label %for.inc

for.inc:                                          ; preds = %for.body
  %14 = load i64, ptr %i, align 8
  %inc = add i64 %14, 1
  store i64 %inc, ptr %i, align 8
  br label %for.cond, !llvm.loop !42

for.end:                                          ; preds = %for.cond
  store i64 0, ptr %i, align 8
  br label %for.cond18

for.cond18:                                       ; preds = %for.inc27, %for.end
  %15 = load i64, ptr %i, align 8
  %16 = load i64, ptr %in_size.addr, align 8
  %cmp19 = icmp ult i64 %15, %16
  br i1 %cmp19, label %for.body20, label %for.end29

for.body20:                                       ; preds = %for.cond18
  %17 = load ptr, ptr %out.addr, align 8
  %18 = load i64, ptr %i, align 8
  %arrayidx21 = getelementptr inbounds %struct.HistogramCommand, ptr %17, i64 %18
  %19 = load ptr, ptr %in.addr, align 8
  %20 = load i64, ptr %i, align 8
  %arrayidx22 = getelementptr inbounds %struct.HistogramCommand, ptr %19, i64 %20
  call void @llvm.memcpy.p0.p0.i64(ptr align 8 %arrayidx21, ptr align 8 %arrayidx22, i64 2832, i1 false)
  %21 = load ptr, ptr %in.addr, align 8
  %22 = load i64, ptr %i, align 8
  %arrayidx23 = getelementptr inbounds %struct.HistogramCommand, ptr %21, i64 %22
  %call24 = call double @BrotliPopulationCostCommand(ptr noundef %arrayidx23)
  %23 = load ptr, ptr %out.addr, align 8
  %24 = load i64, ptr %i, align 8
  %arrayidx25 = getelementptr inbounds %struct.HistogramCommand, ptr %23, i64 %24
  %bit_cost_ = getelementptr inbounds %struct.HistogramCommand, ptr %arrayidx25, i32 0, i32 2
  store double %call24, ptr %bit_cost_, align 8
  %25 = load i64, ptr %i, align 8
  %conv = trunc i64 %25 to i32
  %26 = load ptr, ptr %histogram_symbols.addr, align 8
  %27 = load i64, ptr %i, align 8
  %arrayidx26 = getelementptr inbounds i32, ptr %26, i64 %27
  store i32 %conv, ptr %arrayidx26, align 4
  br label %for.inc27

for.inc27:                                        ; preds = %for.body20
  %28 = load i64, ptr %i, align 8
  %inc28 = add i64 %28, 1
  store i64 %inc28, ptr %i, align 8
  br label %for.cond18, !llvm.loop !43

for.end29:                                        ; preds = %for.cond18
  store i64 0, ptr %i, align 8
  br label %for.cond30

for.cond30:                                       ; preds = %for.inc50, %for.end29
  %29 = load i64, ptr %i, align 8
  %30 = load i64, ptr %in_size.addr, align 8
  %cmp31 = icmp ult i64 %29, %30
  br i1 %cmp31, label %for.body33, label %for.end52

for.body33:                                       ; preds = %for.cond30
  %31 = load i64, ptr %in_size.addr, align 8
  %32 = load i64, ptr %i, align 8
  %sub = sub i64 %31, %32
  store i64 %sub, ptr %a.addr.i85, align 8
  store i64 64, ptr %b.addr.i86, align 8
  %33 = load i64, ptr %a.addr.i85, align 8
  %34 = load i64, ptr %b.addr.i86, align 8
  %cmp.i87 = icmp ult i64 %33, %34
  br i1 %cmp.i87, label %cond.true.i90, label %cond.false.i88

cond.true.i90:                                    ; preds = %for.body33
  %35 = load i64, ptr %a.addr.i85, align 8
  br label %brotli_min_size_t.exit91

cond.false.i88:                                   ; preds = %for.body33
  %36 = load i64, ptr %b.addr.i86, align 8
  br label %brotli_min_size_t.exit91

brotli_min_size_t.exit91:                         ; preds = %cond.false.i88, %cond.true.i90
  %cond.i89 = phi i64 [ %35, %cond.true.i90 ], [ %36, %cond.false.i88 ]
  store i64 %cond.i89, ptr %num_to_combine, align 8
  store i64 0, ptr %j, align 8
  br label %for.cond35

for.cond35:                                       ; preds = %for.inc43, %brotli_min_size_t.exit91
  %37 = load i64, ptr %j, align 8
  %38 = load i64, ptr %num_to_combine, align 8
  %cmp36 = icmp ult i64 %37, %38
  br i1 %cmp36, label %for.body38, label %for.end45

for.body38:                                       ; preds = %for.cond35
  %39 = load i64, ptr %i, align 8
  %40 = load i64, ptr %j, align 8
  %add39 = add i64 %39, %40
  %conv40 = trunc i64 %add39 to i32
  %41 = load ptr, ptr %clusters, align 8
  %42 = load i64, ptr %num_clusters, align 8
  %43 = load i64, ptr %j, align 8
  %add41 = add i64 %42, %43
  %arrayidx42 = getelementptr inbounds i32, ptr %41, i64 %add41
  store i32 %conv40, ptr %arrayidx42, align 4
  br label %for.inc43

for.inc43:                                        ; preds = %for.body38
  %44 = load i64, ptr %j, align 8
  %inc44 = add i64 %44, 1
  store i64 %inc44, ptr %j, align 8
  br label %for.cond35, !llvm.loop !44

for.end45:                                        ; preds = %for.cond35
  %45 = load ptr, ptr %out.addr, align 8
  %46 = load ptr, ptr %tmp, align 8
  %47 = load ptr, ptr %cluster_size, align 8
  %48 = load ptr, ptr %histogram_symbols.addr, align 8
  %49 = load i64, ptr %i, align 8
  %arrayidx46 = getelementptr inbounds i32, ptr %48, i64 %49
  %50 = load ptr, ptr %clusters, align 8
  %51 = load i64, ptr %num_clusters, align 8
  %arrayidx47 = getelementptr inbounds i32, ptr %50, i64 %51
  %52 = load ptr, ptr %pairs, align 8
  %53 = load i64, ptr %num_to_combine, align 8
  %54 = load i64, ptr %num_to_combine, align 8
  %55 = load i64, ptr %max_histograms.addr, align 8
  %56 = load i64, ptr %pairs_capacity, align 8
  %call48 = call i64 @BrotliHistogramCombineCommand(ptr noundef %45, ptr noundef %46, ptr noundef %47, ptr noundef %arrayidx46, ptr noundef %arrayidx47, ptr noundef %52, i64 noundef %53, i64 noundef %54, i64 noundef %55, i64 noundef %56)
  store i64 %call48, ptr %num_new_clusters, align 8
  %57 = load i64, ptr %num_new_clusters, align 8
  %58 = load i64, ptr %num_clusters, align 8
  %add49 = add i64 %58, %57
  store i64 %add49, ptr %num_clusters, align 8
  br label %for.inc50

for.inc50:                                        ; preds = %for.end45
  %59 = load i64, ptr %i, align 8
  %add51 = add i64 %59, 64
  store i64 %add51, ptr %i, align 8
  br label %for.cond30, !llvm.loop !45

for.end52:                                        ; preds = %for.cond30
  %60 = load i64, ptr %num_clusters, align 8
  %mul53 = mul i64 64, %60
  %61 = load i64, ptr %num_clusters, align 8
  %div = udiv i64 %61, 2
  %62 = load i64, ptr %num_clusters, align 8
  %mul54 = mul i64 %div, %62
  store i64 %mul53, ptr %a.addr.i, align 8
  store i64 %mul54, ptr %b.addr.i, align 8
  %63 = load i64, ptr %a.addr.i, align 8
  %64 = load i64, ptr %b.addr.i, align 8
  %cmp.i = icmp ult i64 %63, %64
  br i1 %cmp.i, label %cond.true.i, label %cond.false.i

cond.true.i:                                      ; preds = %for.end52
  %65 = load i64, ptr %a.addr.i, align 8
  br label %brotli_min_size_t.exit

cond.false.i:                                     ; preds = %for.end52
  %66 = load i64, ptr %b.addr.i, align 8
  br label %brotli_min_size_t.exit

brotli_min_size_t.exit:                           ; preds = %cond.false.i, %cond.true.i
  %cond.i = phi i64 [ %65, %cond.true.i ], [ %66, %cond.false.i ]
  store i64 %cond.i, ptr %max_num_pairs, align 8
  %67 = load i64, ptr %pairs_capacity, align 8
  %68 = load i64, ptr %max_num_pairs, align 8
  %add56 = add i64 %68, 1
  %cmp57 = icmp ult i64 %67, %add56
  br i1 %cmp57, label %if.then, label %if.end82

if.then:                                          ; preds = %brotli_min_size_t.exit
  %69 = load i64, ptr %pairs_capacity, align 8
  %cmp59 = icmp eq i64 %69, 0
  br i1 %cmp59, label %cond.true61, label %cond.false63

cond.true61:                                      ; preds = %if.then
  %70 = load i64, ptr %max_num_pairs, align 8
  %add62 = add i64 %70, 1
  br label %cond.end64

cond.false63:                                     ; preds = %if.then
  %71 = load i64, ptr %pairs_capacity, align 8
  br label %cond.end64

cond.end64:                                       ; preds = %cond.false63, %cond.true61
  %cond65 = phi i64 [ %add62, %cond.true61 ], [ %71, %cond.false63 ]
  store i64 %cond65, ptr %_new_size, align 8
  br label %while.cond

while.cond:                                       ; preds = %while.body, %cond.end64
  %72 = load i64, ptr %_new_size, align 8
  %73 = load i64, ptr %max_num_pairs, align 8
  %add66 = add i64 %73, 1
  %cmp67 = icmp ult i64 %72, %add66
  br i1 %cmp67, label %while.body, label %while.end

while.body:                                       ; preds = %while.cond
  %74 = load i64, ptr %_new_size, align 8
  %mul69 = mul i64 %74, 2
  store i64 %mul69, ptr %_new_size, align 8
  br label %while.cond, !llvm.loop !46

while.end:                                        ; preds = %while.cond
  %75 = load i64, ptr %_new_size, align 8
  %cmp70 = icmp ugt i64 %75, 0
  br i1 %cmp70, label %cond.true72, label %cond.false75

cond.true72:                                      ; preds = %while.end
  %76 = load ptr, ptr %m.addr, align 8
  %77 = load i64, ptr %_new_size, align 8
  %mul73 = mul i64 %77, 24
  %call74 = call ptr @BrotliAllocate(ptr noundef %76, i64 noundef %mul73)
  br label %cond.end76

cond.false75:                                     ; preds = %while.end
  br label %cond.end76

cond.end76:                                       ; preds = %cond.false75, %cond.true72
  %cond77 = phi ptr [ %call74, %cond.true72 ], [ null, %cond.false75 ]
  store ptr %cond77, ptr %new_array, align 8
  %78 = load i64, ptr %pairs_capacity, align 8
  %cmp78 = icmp ne i64 %78, 0
  br i1 %cmp78, label %if.then80, label %if.end

if.then80:                                        ; preds = %cond.end76
  %79 = load ptr, ptr %new_array, align 8
  %80 = load ptr, ptr %pairs, align 8
  %81 = load i64, ptr %pairs_capacity, align 8
  %mul81 = mul i64 %81, 24
  call void @llvm.memcpy.p0.p0.i64(ptr align 8 %79, ptr align 8 %80, i64 %mul81, i1 false)
  br label %if.end

if.end:                                           ; preds = %if.then80, %cond.end76
  %82 = load ptr, ptr %m.addr, align 8
  %83 = load ptr, ptr %pairs, align 8
  call void @BrotliFree(ptr noundef %82, ptr noundef %83)
  store ptr null, ptr %pairs, align 8
  %84 = load ptr, ptr %new_array, align 8
  store ptr %84, ptr %pairs, align 8
  %85 = load i64, ptr %_new_size, align 8
  store i64 %85, ptr %pairs_capacity, align 8
  br label %if.end82

if.end82:                                         ; preds = %if.end, %brotli_min_size_t.exit
  %86 = load ptr, ptr %out.addr, align 8
  %87 = load ptr, ptr %tmp, align 8
  %88 = load ptr, ptr %cluster_size, align 8
  %89 = load ptr, ptr %histogram_symbols.addr, align 8
  %90 = load ptr, ptr %clusters, align 8
  %91 = load ptr, ptr %pairs, align 8
  %92 = load i64, ptr %num_clusters, align 8
  %93 = load i64, ptr %in_size.addr, align 8
  %94 = load i64, ptr %max_histograms.addr, align 8
  %95 = load i64, ptr %max_num_pairs, align 8
  %call83 = call i64 @BrotliHistogramCombineCommand(ptr noundef %86, ptr noundef %87, ptr noundef %88, ptr noundef %89, ptr noundef %90, ptr noundef %91, i64 noundef %92, i64 noundef %93, i64 noundef %94, i64 noundef %95)
  store i64 %call83, ptr %num_clusters, align 8
  %96 = load ptr, ptr %m.addr, align 8
  %97 = load ptr, ptr %pairs, align 8
  call void @BrotliFree(ptr noundef %96, ptr noundef %97)
  store ptr null, ptr %pairs, align 8
  %98 = load ptr, ptr %m.addr, align 8
  %99 = load ptr, ptr %cluster_size, align 8
  call void @BrotliFree(ptr noundef %98, ptr noundef %99)
  store ptr null, ptr %cluster_size, align 8
  %100 = load ptr, ptr %in.addr, align 8
  %101 = load i64, ptr %in_size.addr, align 8
  %102 = load ptr, ptr %clusters, align 8
  %103 = load i64, ptr %num_clusters, align 8
  %104 = load ptr, ptr %out.addr, align 8
  %105 = load ptr, ptr %tmp, align 8
  %106 = load ptr, ptr %histogram_symbols.addr, align 8
  call void @BrotliHistogramRemapCommand(ptr noundef %100, i64 noundef %101, ptr noundef %102, i64 noundef %103, ptr noundef %104, ptr noundef %105, ptr noundef %106)
  %107 = load ptr, ptr %m.addr, align 8
  %108 = load ptr, ptr %tmp, align 8
  call void @BrotliFree(ptr noundef %107, ptr noundef %108)
  store ptr null, ptr %tmp, align 8
  %109 = load ptr, ptr %m.addr, align 8
  %110 = load ptr, ptr %clusters, align 8
  call void @BrotliFree(ptr noundef %109, ptr noundef %110)
  store ptr null, ptr %clusters, align 8
  %111 = load ptr, ptr %m.addr, align 8
  %112 = load ptr, ptr %out.addr, align 8
  %113 = load ptr, ptr %histogram_symbols.addr, align 8
  %114 = load i64, ptr %in_size.addr, align 8
  %call84 = call i64 @BrotliHistogramReindexCommand(ptr noundef %111, ptr noundef %112, ptr noundef %113, i64 noundef %114)
  %115 = load ptr, ptr %out_size.addr, align 8
  store i64 %call84, ptr %115, align 8
  ret void
}